target datalayout = "e-m:e-p270:32:32-p271:32:32-p272:64:64-i64:64-i128:128-f80:128-n8:16:32:64-S128"
target triple = "x86_64-pc-linux-gnu"

%"class.icu_77::UObject" = type { ptr }
%"class.icu_77::Calendar" = type <{ %"class.icu_77::UObject", [24 x i32], [24 x i8], i8, [7 x i8], double, ptr, i8, i16, i8, i32, i32, i32, i8, i8, i16, [4 x i8], ptr, ptr }>

; Function Attrs: mustprogress nounwind uwtable
define void @_ZN6icu_778Calendar17setFirstDayOfWeekE19UCalendarDaysOfWeek(ptr noundef nonnull align 8 dereferenceable(192) %0, i32 noundef %1) #0 align 2 {
  %3 = alloca ptr, align 8
  %4 = alloca i32, align 4
  store ptr %0, ptr %3, align 8, !tbaa !37
  store i32 %1, ptr %4, align 4, !tbaa !92
  %5 = load ptr, ptr %3, align 8
  %6 = getelementptr inbounds nuw %"class.icu_77::Calendar", ptr %5, i32 0, i32 8
  %7 = load i16, ptr %6, align 1
  %8 = lshr i16 %7, 3
  %9 = and i16 %8, 15
  %10 = zext i16 %9 to i32
  %11 = load i32, ptr %4, align 4, !tbaa !92
  %12 = icmp ne i32 %10, %11
  br i1 %12, label %13, label %32

13:                                               ; preds = %2
  %14 = load i32, ptr %4, align 4, !tbaa !92
  %15 = icmp sge i32 %14, 1
  br i1 %15, label %16, label %32

16:                                               ; preds = %13
  %17 = load i32, ptr %4, align 4, !tbaa !92
  %18 = icmp sle i32 %17, 7
  br i1 %18, label %19, label %32

19:                                               ; preds = %16
  %20 = load i32, ptr %4, align 4, !tbaa !92
  %21 = getelementptr inbounds nuw %"class.icu_77::Calendar", ptr %5, i32 0, i32 8
  %22 = trunc i32 %20 to i16
  %23 = load i16, ptr %21, align 1
  %24 = and i16 %22, 15
  %25 = shl i16 %24, 3
  %26 = and i16 %23, -121
  %27 = or i16 %26, %25
  store i16 %27, ptr %21, align 1
  %28 = getelementptr inbounds nuw %"class.icu_77::Calendar", ptr %5, i32 0, i32 7
  %29 = load i8, ptr %28, align 8
  %30 = and i8 %29, -3
  %31 = or i8 %30, 0
  store i8 %31, ptr %28, align 8
  br label %32

32:                                               ; preds = %19, %16, %13, %2
  ret void
}