; Function Attrs: mustprogress nofree norecurse nosync nounwind willreturn memory(argmem: readwrite) uwtable
define void @_ZN6icu_778Calendar17setFirstDayOfWeekE19UCalendarDaysOfWeek(ptr noundef nonnull align 8 captures(none) dereferenceable(192) %0, i32 noundef %1) local_unnamed_addr #12 align 2 {
  %3 = getelementptr inbounds nuw i8, ptr %0, i64 153
  %4 = load i16, ptr %3, align 1
  %5 = lshr i16 %4, 3
  %6 = and i16 %5, 15
  %7 = zext nneg i16 %6 to i32
  %8 = icmp ne i32 %1, %7
  %9 = add i32 %1, -1
  %10 = icmp ult i32 %9, 7
  %or.cond3 = and i1 %10, %8
  br i1 %or.cond3, label %11, label %19

11:                                               ; preds = %2
  %12 = trunc nuw nsw i32 %1 to i16
  %13 = shl nuw nsw i16 %12, 3
  %14 = and i16 %4, -121
  %15 = or disjoint i16 %14, %13
  store i16 %15, ptr %3, align 1
  %16 = getelementptr inbounds nuw i8, ptr %0, i64 152
  %17 = load i8, ptr %16, align 8
  %18 = and i8 %17, -3
  store i8 %18, ptr %16, align 8
  br label %19

19:                                               ; preds = %11, %2
  ret void
}